Certificate:
    Data:
        Version: 3 (0x2)
        Serial Number:
            c0:12:de:e3:55:3b:76:87:fb:fe:fa:c3:8f:b3:54:33
    Signature Algorithm: sha256WithRSAEncryption
        Issuer: CN=107.170.252.100
        Validity
            Not Before: Mar  7 01:01:08 2018 GMT
            Not After : Mar  4 01:01:08 2028 GMT
        Subject: CN=107.170.252.100
        Subject Public Key Info:
            Public Key Algorithm: rsaEncryption
                Public-Key: (2048 bit)
                Modulus:
                    00:af:64:b7:f0:b1:03:8f:7f:dd:86:6c:2a:0e:9a:
                    66:42:58:b4:1a:59:1e:8f:43:6a:77:d7:fc:a8:6b:
                    04:1c:5b:a8:e1:6a:10:d8:a5:91:51:a5:27:94:c8:
                    dd:d8:2f:47:43:78:e9:6b:9f:d4:f8:2d:80:6a:40:
                    f7:8c:54:90:bf:81:43:e1:62:b2:f0:f8:ff:b0:4f:
                    0c:d3:4d:81:1f:73:15:94:a0:cc:c3:af:c8:3b:73:
                    d3:66:56:04:c2:ce:c0:a8:48:51:9a:51:4b:69:32:
                    e5:60:85:53:ac:24:35:ff:8a:87:bc:94:c5:8a:82:
                    d3:86:e4:61:ac:97:8b:92:40:8d:35:88:5f:c9:a4:
                    9d:24:fc:92:33:3d:b2:f2:f5:b9:f3:a0:d1:cb:f7:
                    1f:97:70:a4:d1:93:98:d5:bc:59:2c:27:4b:30:6d:
                    9a:8f:30:e4:4f:6c:32:70:52:c1:65:57:42:10:6d:
                    48:fe:fa:c3:a0:f4:52:09:30:cf:0b:41:58:83:2e:
                    55:51:d8:42:da:f7:be:cc:41:b7:c0:56:ec:95:b6:
                    36:47:ff:35:b3:ce:68:7a:e4:10:47:4d:90:81:84:
                    fb:60:4f:a7:e8:de:99:29:e6:66:77:0d:3a:66:05:
                    01:08:e4:23:45:2d:cc:bc:af:d3:9b:1f:50:19:e8:
                    b6:0d
                Exponent: 65537 (0x10001)
        X509v3 extensions:
            X509v3 Basic Constraints: 
                CA:FALSE
            X509v3 Subject Key Identifier: 
                46:2C:CB:39:46:BB:87:94:1C:04:36:1C:61:4D:F3:0F:FE:DC:CB:3C
            X509v3 Authority Key Identifier: 
                keyid:91:B2:65:24:49:9E:95:8F:47:99:0C:1A:F0:44:F6:66:F4:9F:E6:D2
                DirName:/CN=107.170.252.100
                serial:F9:F7:6F:55:52:E5:1E:B3

            X509v3 Extended Key Usage: 
                TLS Web Server Authentication
            X509v3 Key Usage: 
                Digital Signature, Key Encipherment
    Signature Algorithm: sha256WithRSAEncryption
         39:0d:23:30:25:4b:1f:b8:eb:04:02:ce:44:4c:8a:29:73:1e:
         72:f1:4a:ab:b3:27:79:29:ff:87:1d:39:46:d5:7a:5a:e1:43:
         bd:96:2b:16:c4:c1:a0:a8:85:11:2c:29:07:31:f5:46:15:93:
         aa:63:fa:df:c9:c5:f2:d5:f8:e2:e1:58:88:fc:c1:63:40:6b:
         b2:b8:cb:c8:fb:00:71:4d:e0:54:bb:99:fc:40:ee:82:5d:aa:
         31:d8:34:b0:92:cb:1e:85:bb:17:49:7d:2e:3a:d2:17:b7:5b:
         e6:dc:89:41:27:ab:d8:75:54:fd:5e:58:b2:d0:6d:41:d4:cd:
         7f:41:f3:4d:51:3f:14:7a:ef:37:6f:54:5d:bb:bb:00:bc:dc:
         fd:1e:cf:27:50:01:5a:c2:84:78:8a:4c:70:a0:c1:19:9e:ca:
         b4:a7:29:ed:9d:3f:eb:cd:08:1b:15:6e:0c:18:92:37:ca:c9:
         01:bf:fc:39:8f:2e:5d:78:bf:03:e5:22:af:e5:e1:ec:75:5f:
         6f:26:b2:13:84:0f:f5:55:cb:48:f9:7b:d1:b7:da:1f:27:82:
         12:0a:ad:2e:b1:8f:33:d4:b1:f3:a8:72:88:91:93:ce:dc:3f:
         6d:f9:1a:b1:4c:75:4e:72:02:8f:dd:62:d9:7e:ac:50:83:03:
         0a:86:a9:c8
-----BEGIN CERTIFICATE-----
MIIDWzCCAkOgAwIBAgIRAMAS3uNVO3aH+/76w4+zVDMwDQYJKoZIhvcNAQELBQAw
GjEYMBYGA1UEAxMPMTA3LjE3MC4yNTIuMTAwMB4XDTE4MDMwNzAxMDEwOFoXDTI4
MDMwNDAxMDEwOFowGjEYMBYGA1UEAxMPMTA3LjE3MC4yNTIuMTAwMIIBIjANBgkq
hkiG9w0BAQEFAAOCAQ8AMIIBCgKCAQEAr2S38LEDj3/dhmwqDppmQli0Glkej0Nq
d9f8qGsEHFuo4WoQ2KWRUaUnlMjd2C9HQ3jpa5/U+C2AakD3jFSQv4FD4WKy8Pj/
sE8M002BH3MVlKDMw6/IO3PTZlYEws7AqEhRmlFLaTLlYIVTrCQ1/4qHvJTFioLT
huRhrJeLkkCNNYhfyaSdJPySMz2y8vW586DRy/cfl3Ck0ZOY1bxZLCdLMG2ajzDk
T2wycFLBZVdCEG1I/vrDoPRSCTDPC0FYgy5VUdhC2ve+zEG3wFbslbY2R/81s85o
euQQR02QgYT7YE+n6N6ZKeZmdw06ZgUBCOQjRS3MvK/Tmx9QGei2DQIDAQABo4Gb
MIGYMAkGA1UdEwQCMAAwHQYDVR0OBBYEFEYsyzlGu4eUHAQ2HGFN8w/+3Ms8MEoG
A1UdIwRDMEGAFJGyZSRJnpWPR5kMGvBE9mb0n+bSoR6kHDAaMRgwFgYDVQQDEw8x
MDcuMTcwLjI1Mi4xMDCCCQD5929VUuUeszATBgNVHSUEDDAKBggrBgEFBQcDATAL
BgNVHQ8EBAMCBaAwDQYJKoZIhvcNAQELBQADggEBADkNIzAlSx+46wQCzkRMiilz
HnLxSquzJ3kp/4cdOUbVelrhQ72WKxbEwaCohREsKQcx9UYVk6pj+t/JxfLV+OLh
WIj8wWNAa7K4y8j7AHFN4FS7mfxA7oJdqjHYNLCSyx6FuxdJfS460he3W+bciUEn
q9h1VP1eWLLQbUHUzX9B801RPxR67zdvVF27uwC83P0ezydQAVrChHiKTHCgwRme
yrSnKe2dP+vNCBsVbgwYkjfKyQG//DmPLl14vwPlIq/l4ex1X28mshOED/VVy0j5
e9G32h8nghIKrS6xjzPUsfOocoiRk87cP235GrFMdU5yAo/dYtl+rFCDAwqGqcg=
-----END CERTIFICATE-----
